target datalayout = "e-m:e-p270:32:32-p271:32:32-p272:64:64-i64:64-i128:128-f80:128-n8:16:32:64-S128"
target triple = "x86_64-pc-linux-gnu"

%struct.varattrib_1b = type { i8, [0 x i8] }
%struct.anon = type { i32, [0 x i8] }
%struct.varattrib_1b_e = type { i8, i8, [0 x i8] }

; Function Attrs: nounwind uwtable
define dso_local void @escape_json_text(ptr noundef %0, ptr noundef %1) #0 {
  %3 = alloca ptr, align 8
  %4 = alloca ptr, align 8
  %5 = alloca ptr, align 8
  %6 = alloca i32, align 4
  %7 = alloca i32, align 4
  %8 = alloca ptr, align 8
  store ptr %0, ptr %3, align 8
  store ptr %1, ptr %4, align 8
  call void @llvm.lifetime.start.p0(i64 8, ptr %5) #14
  br label %9

9:                                                ; preds = %2
  br label %10

10:                                               ; preds = %9
  br label %11

11:                                               ; preds = %10
  store i32 1, ptr %6, align 4
  %12 = load ptr, ptr %4, align 8
  %13 = call ptr @pg_detoast_datum_packed(ptr noundef %12)
  store ptr %13, ptr %5, align 8
  call void @llvm.lifetime.start.p0(i64 4, ptr %7) #14
  %14 = load ptr, ptr %5, align 8
  %15 = getelementptr inbounds nuw %struct.varattrib_1b, ptr %14, i32 0, i32 0
  %16 = load i8, ptr %15, align 1
  %17 = zext i8 %16 to i32
  %18 = icmp eq i32 %17, 1
  br i1 %18, label %19, label %47

19:                                               ; preds = %11
  %20 = load ptr, ptr %5, align 8
  %21 = getelementptr inbounds nuw %struct.varattrib_1b_e, ptr %20, i32 0, i32 1
  %22 = load i8, ptr %21, align 1
  %23 = zext i8 %22 to i32
  %24 = icmp eq i32 %23, 1
  br i1 %24, label %25, label %26

25:                                               ; preds = %19
  br label %43

26:                                               ; preds = %19
  %27 = load ptr, ptr %5, align 8
  %28 = getelementptr inbounds nuw %struct.varattrib_1b_e, ptr %27, i32 0, i32 1
  %29 = load i8, ptr %28, align 1
  %30 = zext i8 %29 to i32
  %31 = and i32 %30, -2
  %32 = icmp eq i32 %31, 2
  br i1 %32, label %33, label %34

33:                                               ; preds = %26
  br label %41

34:                                               ; preds = %26
  %35 = load ptr, ptr %5, align 8
  %36 = getelementptr inbounds nuw %struct.varattrib_1b_e, ptr %35, i32 0, i32 1
  %37 = load i8, ptr %36, align 1
  %38 = zext i8 %37 to i32
  %39 = icmp eq i32 %38, 18
  %40 = select i1 %39, i64 16, i64 0
  br label %41

41:                                               ; preds = %34, %33
  %42 = phi i64 [ 8, %33 ], [ %40, %34 ]
  br label %43

43:                                               ; preds = %41, %25
  %44 = phi i64 [ 8, %25 ], [ %42, %41 ]
  %45 = add i64 2, %44
  %46 = sub i64 %45, 2
  br label %73

47:                                               ; preds = %11
  %48 = load ptr, ptr %5, align 8
  %49 = getelementptr inbounds nuw %struct.varattrib_1b, ptr %48, i32 0, i32 0
  %50 = load i8, ptr %49, align 1
  %51 = zext i8 %50 to i32
  %52 = and i32 %51, 1
  %53 = icmp eq i32 %52, 1
  br i1 %53, label %54, label %63

54:                                               ; preds = %47
  %55 = load ptr, ptr %5, align 8
  %56 = getelementptr inbounds nuw %struct.varattrib_1b, ptr %55, i32 0, i32 0
  %57 = load i8, ptr %56, align 1
  %58 = zext i8 %57 to i32
  %59 = ashr i32 %58, 1
  %60 = and i32 %59, 127
  %61 = sext i32 %60 to i64
  %62 = sub i64 %61, 1
  br label %71

63:                                               ; preds = %47
  %64 = load ptr, ptr %5, align 8
  %65 = getelementptr inbounds nuw %struct.anon, ptr %64, i32 0, i32 0
  %66 = load i32, ptr %65, align 4
  %67 = lshr i32 %66, 2
  %68 = and i32 %67, 1073741823
  %69 = sub i32 %68, 4
  %70 = zext i32 %69 to i64
  br label %71

71:                                               ; preds = %63, %54
  %72 = phi i64 [ %62, %54 ], [ %70, %63 ]
  br label %73

73:                                               ; preds = %71, %43
  %74 = phi i64 [ %46, %43 ], [ %72, %71 ]
  %75 = trunc i64 %74 to i32
  store i32 %75, ptr %7, align 4
  call void @llvm.lifetime.start.p0(i64 8, ptr %8) #14
  %76 = load ptr, ptr %5, align 8
  %77 = getelementptr inbounds nuw %struct.varattrib_1b, ptr %76, i32 0, i32 0
  %78 = load i8, ptr %77, align 1
  %79 = zext i8 %78 to i32
  %80 = and i32 %79, 1
  %81 = icmp eq i32 %80, 1
  br i1 %81, label %82, label %86

82:                                               ; preds = %73
  %83 = load ptr, ptr %5, align 8
  %84 = getelementptr inbounds nuw %struct.varattrib_1b, ptr %83, i32 0, i32 1
  %85 = getelementptr inbounds [0 x i8], ptr %84, i64 0, i64 0
  br label %90

86:                                               ; preds = %73
  %87 = load ptr, ptr %5, align 8
  %88 = getelementptr inbounds nuw %struct.anon, ptr %87, i32 0, i32 1
  %89 = getelementptr inbounds [0 x i8], ptr %88, i64 0, i64 0
  br label %90

90:                                               ; preds = %86, %82
  %91 = phi ptr [ %85, %82 ], [ %89, %86 ]
  store ptr %91, ptr %8, align 8
  %92 = load ptr, ptr %3, align 8
  %93 = load ptr, ptr %8, align 8
  %94 = load i32, ptr %7, align 4
  call void @escape_json_with_len(ptr noundef %92, ptr noundef %93, i32 noundef %94)
  %95 = load ptr, ptr %5, align 8
  %96 = load ptr, ptr %4, align 8
  %97 = icmp ne ptr %95, %96
  br i1 %97, label %98, label %100

98:                                               ; preds = %90
  %99 = load ptr, ptr %5, align 8
  call void @pfree(ptr noundef %99)
  br label %100

100:                                              ; preds = %98, %90
  call void @llvm.lifetime.end.p0(i64 8, ptr %8) #14
  call void @llvm.lifetime.end.p0(i64 4, ptr %7) #14
  call void @llvm.lifetime.end.p0(i64 8, ptr %5) #14
  ret void
}