; Function Attrs: nounwind uwtable
define dso_local void @escape_json_text(ptr noundef %0, ptr noundef %1) local_unnamed_addr #0 {
  %3 = tail call ptr @pg_detoast_datum_packed(ptr noundef %1) #10
  %4 = load i8, ptr %3, align 1
  %5 = zext i8 %4 to i32
  %6 = icmp eq i8 %4, 1
  br i1 %6, label %7, label %16

7:                                                ; preds = %2
  %8 = getelementptr inbounds nuw i8, ptr %3, i64 1
  %9 = load i8, ptr %8, align 1
  %10 = icmp eq i8 %9, 1
  %11 = and i8 %9, -2
  %12 = icmp eq i8 %11, 2
  %or.cond = or i1 %10, %12
  %13 = icmp eq i8 %9, 18
  %14 = select i1 %13, i32 16, i32 0
  %15 = select i1 %or.cond, i32 8, i32 %14
  br label %25

16:                                               ; preds = %2
  %17 = and i32 %5, 1
  %.not = icmp eq i32 %17, 0
  br i1 %.not, label %21, label %18

18:                                               ; preds = %16
  %19 = lshr i32 %5, 1
  %20 = add nsw i32 %19, -1
  br label %25

21:                                               ; preds = %16
  %22 = load i32, ptr %3, align 4
  %23 = lshr i32 %22, 2
  %24 = add nsw i32 %23, -4
  br label %25

25:                                               ; preds = %18, %21, %7
  %26 = phi i32 [ %15, %7 ], [ %20, %18 ], [ %24, %21 ]
  %27 = and i8 %4, 1
  %.not18 = icmp eq i8 %27, 0
  %.v = select i1 %.not18, i64 4, i64 1
  %28 = getelementptr inbounds nuw i8, ptr %3, i64 %.v
  tail call void @escape_json_with_len(ptr noundef %0, ptr noundef nonnull %28, i32 noundef %26)
  %.not19 = icmp eq ptr %3, %1
  br i1 %.not19, label %30, label %29

29:                                               ; preds = %25
  tail call void @pfree(ptr noundef nonnull %3) #10
  br label %30

30:                                               ; preds = %29, %25
  ret void
}